target datalayout = "e-m:e-p270:32:32-p271:32:32-p272:64:64-i64:64-i128:128-f80:128-n8:16:32:64-S128"
target triple = "x86_64-pc-linux-gnu"

%struct.expert_field = type { i32, i32 }

@hf_pcep_bandwidth = internal global i32 0, align 4
@ei_pcep_subobject_bad_length = internal global %struct.expert_field zeroinitializer, align 4
@.str.1149 = private unnamed_addr constant [45 x i8] c"Bad BANDWIDTH object length %u, should be %u\00", align 1

; Function Attrs: null_pointer_is_valid sspstrong uwtable
define internal void @dissect_pcep_bandwidth_obj(ptr noundef %0, ptr noundef %1, ptr noundef %2, i32 noundef %3, i32 noundef %4, i32 noundef %5, i32 noundef %6) #0 {
  %8 = alloca ptr, align 8
  %9 = alloca ptr, align 8
  %10 = alloca ptr, align 8
  %11 = alloca i32, align 4
  %12 = alloca i32, align 4
  %13 = alloca i32, align 4
  %14 = alloca i32, align 4
  store ptr %0, ptr %8, align 8
  store ptr %1, ptr %9, align 8
  store ptr %2, ptr %10, align 8
  store i32 %3, ptr %11, align 4
  store i32 %4, ptr %12, align 4
  store i32 %5, ptr %13, align 4
  store i32 %6, ptr %14, align 4
  %15 = load i32, ptr %12, align 4
  %16 = icmp ne i32 %15, 8
  br i1 %16, label %17, label %25

17:                                               ; preds = %7
  %18 = load ptr, ptr %8, align 8
  %19 = load ptr, ptr %9, align 8
  %20 = load ptr, ptr %10, align 8
  %21 = load i32, ptr %11, align 4
  %22 = load i32, ptr %12, align 4
  %23 = load i32, ptr %12, align 4
  %24 = call ptr (ptr, ptr, ptr, ptr, i32, i32, ptr, ...) @proto_tree_add_expert_format(ptr noundef %18, ptr noundef %19, ptr noundef @ei_pcep_subobject_bad_length, ptr noundef %20, i32 noundef %21, i32 noundef %22, ptr noundef @.str.1149, i32 noundef %23, i32 noundef 8)
  br label %31

25:                                               ; preds = %7
  %26 = load ptr, ptr %8, align 8
  %27 = load i32, ptr @hf_pcep_bandwidth, align 4
  %28 = load ptr, ptr %10, align 8
  %29 = load i32, ptr %11, align 4
  %30 = call ptr @proto_tree_add_item(ptr noundef %26, i32 noundef %27, ptr noundef %28, i32 noundef %29, i32 noundef 4, i32 noundef 0)
  br label %31

31:                                               ; preds = %25, %17
  ret void
}